target datalayout = "e-m:e-p270:32:32-p271:32:32-p272:64:64-i64:64-i128:128-f80:128-n8:16:32:64-S128"
target triple = "x86_64-pc-linux-gnu"

%"class.llvm::Triple" = type { %"class.std::__cxx11::basic_string", i32, i32, i32, i32, i32, i32 }
%"class.std::__cxx11::basic_string" = type { %"struct.std::__cxx11::basic_string<char>::_Alloc_hider", i64, %union.anon }
%"struct.std::__cxx11::basic_string<char>::_Alloc_hider" = type { ptr }
%union.anon = type { i64, [8 x i8] }
%"class.llvm::VersionTuple" = type { i64, i64 }

; Function Attrs: mustprogress nounwind uwtable
define linkonce_odr hidden noundef i32 @_ZNK4llvm12VersionTuple8getMajorEv(ptr noundef nonnull align 4 dereferenceable(16) %0) #0 comdat align 2 {
  %2 = alloca ptr, align 8
  store ptr %0, ptr %2, align 8
  %3 = load ptr, ptr %2, align 8
  %4 = load i64, ptr %3, align 4
  %5 = and i64 %4, 4294967295
  %6 = trunc i64 %5 to i32
  ret i32 %6
}

; Function Attrs: mustprogress nounwind uwtable
define linkonce_odr hidden void @_ZN4llvm12VersionTupleC2Ej(ptr noundef nonnull align 4 dereferenceable(16) %0, i32 noundef %1) unnamed_addr #0 comdat align 2 {
  %3 = alloca ptr, align 8
  %4 = alloca i32, align 4
  store ptr %0, ptr %3, align 8
  store i32 %1, ptr %4, align 4
  %5 = load ptr, ptr %3, align 8
  %6 = load i32, ptr %4, align 4
  %7 = zext i32 %6 to i64
  %8 = load i64, ptr %5, align 4
  %9 = and i64 %7, 4294967295
  %10 = and i64 %8, -4294967296
  %11 = or i64 %10, %9
  store i64 %11, ptr %5, align 4
  %12 = load i64, ptr %5, align 4
  %13 = and i64 %12, -9223372032559808513
  %14 = or i64 %13, 0
  store i64 %14, ptr %5, align 4
  %15 = load i64, ptr %5, align 4
  %16 = and i64 %15, 9223372036854775807
  %17 = or i64 %16, 0
  store i64 %17, ptr %5, align 4
  %18 = getelementptr inbounds nuw %"class.llvm::VersionTuple", ptr %5, i32 0, i32 1
  %19 = load i64, ptr %18, align 4
  %20 = and i64 %19, -2147483648
  %21 = or i64 %20, 0
  store i64 %21, ptr %18, align 4
  %22 = getelementptr inbounds nuw %"class.llvm::VersionTuple", ptr %5, i32 0, i32 1
  %23 = load i64, ptr %22, align 4
  %24 = and i64 %23, -2147483649
  %25 = or i64 %24, 0
  store i64 %25, ptr %22, align 4
  %26 = getelementptr inbounds nuw %"class.llvm::VersionTuple", ptr %5, i32 0, i32 1
  %27 = load i64, ptr %26, align 4
  %28 = and i64 %27, -9223372032559808513
  %29 = or i64 %28, 0
  store i64 %29, ptr %26, align 4
  %30 = getelementptr inbounds nuw %"class.llvm::VersionTuple", ptr %5, i32 0, i32 1
  %31 = load i64, ptr %30, align 4
  %32 = and i64 %31, 9223372036854775807
  %33 = or i64 %32, 0
  store i64 %33, ptr %30, align 4
  ret void
}

; Function Attrs: mustprogress nounwind uwtable
define linkonce_odr hidden noundef i32 @_ZNK4llvm6Triple5getOSEv(ptr noundef nonnull align 8 dereferenceable(56) %0) #0 comdat align 2 {
  %2 = alloca ptr, align 8
  store ptr %0, ptr %2, align 8
  %3 = load ptr, ptr %2, align 8
  %4 = getelementptr inbounds nuw %"class.llvm::Triple", ptr %3, i32 0, i32 4
  %5 = load i32, ptr %4, align 4
  ret i32 %5
}

; Function Attrs: mustprogress nounwind uwtable
define dso_local { i64, i64 } @_ZNK4llvm6Triple17getWatchOSVersionEv(ptr noundef nonnull align 8 dereferenceable(56) %0) #0 align 2 {
  %2 = alloca %"class.llvm::VersionTuple", align 4
  %3 = alloca ptr, align 8
  %4 = alloca %"class.llvm::VersionTuple", align 4
  store ptr %0, ptr %3, align 8
  %5 = load ptr, ptr %3, align 8
  %6 = call noundef i32 @_ZNK4llvm6Triple5getOSEv(ptr noundef nonnull align 8 dereferenceable(56) %5)
  switch i32 %6, label %7 [
    i32 1, label %8
    i32 9, label %8
    i32 27, label %9
    i32 5, label %19
    i32 30, label %20
    i32 29, label %21
  ]

7:                                                ; preds = %1
  unreachable

8:                                                ; preds = %1, %1
  call void @_ZN4llvm12VersionTupleC2Ej(ptr noundef nonnull align 4 dereferenceable(16) %2, i32 noundef 2)
  br label %22

9:                                                ; preds = %1
  %10 = call { i64, i64 } @_ZNK4llvm6Triple12getOSVersionEv(ptr noundef nonnull align 8 dereferenceable(56) %5)
  %11 = getelementptr inbounds nuw { i64, i64 }, ptr %4, i32 0, i32 0
  %12 = extractvalue { i64, i64 } %10, 0
  store i64 %12, ptr %11, align 4
  %13 = getelementptr inbounds nuw { i64, i64 }, ptr %4, i32 0, i32 1
  %14 = extractvalue { i64, i64 } %10, 1
  store i64 %14, ptr %13, align 4
  %15 = call noundef i32 @_ZNK4llvm12VersionTuple8getMajorEv(ptr noundef nonnull align 4 dereferenceable(16) %4)
  %16 = icmp eq i32 %15, 0
  br i1 %16, label %17, label %18

17:                                               ; preds = %9
  call void @_ZN4llvm12VersionTupleC2Ej(ptr noundef nonnull align 4 dereferenceable(16) %2, i32 noundef 2)
  br label %22

18:                                               ; preds = %9
  call void @llvm.memcpy.p0.p0.i64(ptr align 4 %2, ptr align 4 %4, i64 16, i1 false)
  br label %22

19:                                               ; preds = %1
  unreachable

20:                                               ; preds = %1
  unreachable

21:                                               ; preds = %1
  unreachable

22:                                               ; preds = %18, %17, %8
  %23 = load { i64, i64 }, ptr %2, align 4
  ret { i64, i64 } %23
}